; Function Attrs: null_pointer_is_valid sspstrong uwtable
define internal zeroext i1 @stanag4607_seek_read(ptr noundef readonly captures(none) %0, i64 noundef %1, ptr noundef %2, ptr noundef %3, ptr noundef %4) #0 {
  %6 = getelementptr inbounds nuw i8, ptr %0, i64 8
  %7 = load ptr, ptr %6, align 8
  %8 = tail call i64 @file_seek(ptr noundef %7, i64 noundef %1, i32 noundef 0, ptr noundef %3)
  %9 = icmp eq i64 %8, -1
  br i1 %9, label %14, label %10

10:                                               ; preds = %5
  %11 = load ptr, ptr %6, align 8
  %12 = getelementptr i8, ptr %0, i64 96
  %.val = load ptr, ptr %12, align 8
  %13 = tail call fastcc zeroext i1 @stanag4607_read_file(ptr %.val, ptr noundef %11, ptr noundef %2, ptr noundef %3, ptr noundef %4)
  br label %14

14:                                               ; preds = %5, %10
  %.0 = phi i1 [ %13, %10 ], [ false, %5 ]
  ret i1 %.0
}